target datalayout = "e-m:e-p270:32:32-p271:32:32-p272:64:64-i64:64-i128:128-f80:128-n8:16:32:64-S128"
target triple = "x86_64-pc-linux-gnu"

@progname = internal global ptr null, align 8
@sig = internal global i32 2, align 4
@.str.183 = private unnamed_addr constant [44 x i8] c"%s: could not send signal %d (PID: %d): %m\0A\00", align 1

; Function Attrs: nounwind uwtable
define internal void @do_kill(i32 noundef %0) #0 {
  %2 = alloca i32, align 4
  store i32 %0, ptr %2, align 4
  %3 = load i32, ptr %2, align 4
  %4 = load i32, ptr @sig, align 4
  %5 = call i32 @kill(i32 noundef %3, i32 noundef %4) #10
  %6 = icmp ne i32 %5, 0
  br i1 %6, label %7, label %11

7:                                                ; preds = %1
  %8 = load ptr, ptr @progname, align 8
  %9 = load i32, ptr @sig, align 4
  %10 = load i32, ptr %2, align 4
  call void (ptr, ...) @write_stderr(ptr noundef @.str.183, ptr noundef %8, i32 noundef %9, i32 noundef %10)
  call void @exit(i32 noundef 1) #12
  unreachable

11:                                               ; preds = %1
  ret void
}