; Function Attrs: nounwind uwtable
define internal fastcc void @do_kill(i32 noundef %0) unnamed_addr #5 {
  %2 = load i32, ptr @sig, align 4
  %3 = tail call i32 @kill(i32 noundef %0, i32 noundef %2) #17
  %.not = icmp eq i32 %3, 0
  br i1 %.not, label %7, label %4

4:                                                ; preds = %1
  %5 = load ptr, ptr @progname, align 8
  %6 = load i32, ptr @sig, align 4
  tail call void (ptr, ...) @write_stderr(ptr noundef nonnull @.str.183, ptr noundef %5, i32 noundef %6, i32 noundef %0)
  tail call void @exit(i32 noundef 1) #20
  unreachable

7:                                                ; preds = %1
  ret void
}